; Function Attrs: mustprogress nounwind uwtable
define hidden noundef ptr @_ZNK8MaxINode8add_ringEPK4TypeS2_(ptr nocapture noundef nonnull readnone align 8 dereferenceable(52) %0, ptr nocapture noundef readonly %1, ptr nocapture noundef readonly %2) unnamed_addr #0 align 2 {
  %4 = getelementptr inbounds i8, ptr %1, i64 24
  %5 = load i32, ptr %4, align 8
  %6 = getelementptr inbounds i8, ptr %2, i64 24
  %7 = load i32, ptr %6, align 8
  %8 = tail call noundef i32 @llvm.smax.i32(i32 %5, i32 %7)
  %9 = getelementptr inbounds i8, ptr %1, i64 28
  %10 = load i32, ptr %9, align 4
  %11 = getelementptr inbounds i8, ptr %2, i64 28
  %12 = load i32, ptr %11, align 4
  %13 = tail call noundef i32 @llvm.smax.i32(i32 %10, i32 %12)
  %14 = getelementptr inbounds i8, ptr %1, i64 20
  %15 = load i16, ptr %14, align 4
  %16 = getelementptr inbounds i8, ptr %2, i64 20
  %17 = load i16, ptr %16, align 4
  %18 = tail call noundef i16 @llvm.smax.i16(i16 %15, i16 %17)
  %19 = sext i16 %18 to i32
  %20 = tail call noundef ptr @_ZN7TypeInt4makeEiii(i32 noundef %8, i32 noundef %13, i32 noundef %19) #7
  ret ptr %20
}